; Function Attrs: mustprogress uwtable
define hidden noundef zeroext i1 @_ZN18OpenImageIO_v2_6_09TGAOutput5closeEv(ptr noundef nonnull align 8 dereferenceable(296) %this) unnamed_addr #5 align 2 {
entry:
  %agg.tmp = alloca %"struct.OpenImageIO_v2_6_0::TypeDesc", align 4
  %call = tail call noundef zeroext i1 @_ZNK18OpenImageIO_v2_6_011ImageOutput14ioproxy_openedEv(ptr noundef nonnull align 8 dereferenceable(184) %this)
  br i1 %call, label %if.end, label %if.then

if.then:                                          ; preds = %entry
  %m_convert_alpha.i = getelementptr inbounds i8, ptr %this, i64 217
  store i8 1, ptr %m_convert_alpha.i, align 1
  %m_gamma.i = getelementptr inbounds i8, ptr %this, i64 220
  store float 1.000000e+00, ptr %m_gamma.i, align 4
  %m_thumb.i = getelementptr inbounds i8, ptr %this, i64 280
  tail call void @_ZN18OpenImageIO_v2_6_08ImageBuf5clearEv(ptr noundef nonnull align 8 dereferenceable(16) %m_thumb.i)
  tail call void @_ZN18OpenImageIO_v2_6_011ImageOutput13ioproxy_clearEv(ptr noundef nonnull align 8 dereferenceable(184) %this)
  br label %return

if.end:                                           ; preds = %entry
  %tile_width = getelementptr inbounds i8, ptr %this, i64 56
  %0 = load i32, ptr %tile_width, align 8
  %tobool.not = icmp eq i32 %0, 0
  br i1 %tobool.not, label %if.end18, label %if.then2

if.then2:                                         ; preds = %if.end
  %m_tilebuffer = getelementptr inbounds i8, ptr %this, i64 256
  %_M_finish.i = getelementptr inbounds i8, ptr %this, i64 264
  %1 = load ptr, ptr %_M_finish.i, align 8
  %2 = load ptr, ptr %m_tilebuffer, align 8
  %tobool4.not = icmp eq ptr %1, %2
  br i1 %tobool4.not, label %cond.false, label %cond.end

cond.false:                                       ; preds = %if.then2
  %3 = load ptr, ptr @stderr, align 8
  %call5 = tail call i32 (ptr, ptr, ...) @fprintf(ptr noundef %3, ptr noundef nonnull @.str.24, ptr noundef nonnull @.str.25, i32 noundef 435, ptr noundef nonnull @__FUNCTION__._ZN18OpenImageIO_v2_6_09TGAOutput5closeEv, ptr noundef nonnull @.str.26) #23
  %.pre = load ptr, ptr %m_tilebuffer, align 8
  br label %cond.end

cond.end:                                         ; preds = %if.then2, %cond.false
  %4 = phi ptr [ %2, %if.then2 ], [ %.pre, %cond.false ]
  %y = getelementptr inbounds i8, ptr %this, i64 12
  %5 = load i32, ptr %y, align 4
  %height = getelementptr inbounds i8, ptr %this, i64 24
  %6 = load i32, ptr %height, align 8
  %add = add nsw i32 %6, %5
  %format = getelementptr inbounds i8, ptr %this, i64 72
  %7 = load i8, ptr %format, align 8
  store i8 %7, ptr %agg.tmp, align 4
  %aggregate.i = getelementptr inbounds i8, ptr %agg.tmp, i64 1
  %aggregate3.i = getelementptr inbounds i8, ptr %this, i64 73
  %8 = load i8, ptr %aggregate3.i, align 1
  store i8 %8, ptr %aggregate.i, align 1
  %vecsemantics.i = getelementptr inbounds i8, ptr %agg.tmp, i64 2
  %vecsemantics4.i = getelementptr inbounds i8, ptr %this, i64 74
  %9 = load i8, ptr %vecsemantics4.i, align 2
  store i8 %9, ptr %vecsemantics.i, align 2
  %reserved.i = getelementptr inbounds i8, ptr %agg.tmp, i64 3
  store i8 0, ptr %reserved.i, align 1
  %arraylen.i = getelementptr inbounds i8, ptr %agg.tmp, i64 4
  %arraylen5.i = getelementptr inbounds i8, ptr %this, i64 76
  %10 = load i32, ptr %arraylen5.i, align 4
  store i32 %10, ptr %arraylen.i, align 4
  %call13 = call noundef zeroext i1 @_ZN18OpenImageIO_v2_6_011ImageOutput15write_scanlinesEiiiNS_8TypeDescEPKvll(ptr noundef nonnull align 8 dereferenceable(184) %this, i32 noundef %5, i32 noundef %add, i32 noundef 0, ptr noundef nonnull %agg.tmp, ptr noundef nonnull %4, i64 noundef -9223372036854775808, i64 noundef -9223372036854775808)
  %call.i = call noundef zeroext i1 @_ZNSt6vectorIhSaIhEE16_M_shrink_to_fitEv(ptr noundef nonnull align 8 dereferenceable(24) %m_tilebuffer)
  br label %if.end18

if.end18:                                         ; preds = %cond.end, %if.end
  %ok.0 = phi i1 [ %call13, %cond.end ], [ true, %if.end ]
  %call19 = call noundef zeroext i1 @_ZN18OpenImageIO_v2_6_09TGAOutput23write_tga20_data_fieldsEv(ptr noundef nonnull align 8 dereferenceable(296) %this)
  %tobool24 = and i1 %ok.0, %call19
  %m_convert_alpha.i4 = getelementptr inbounds i8, ptr %this, i64 217
  store i8 1, ptr %m_convert_alpha.i4, align 1
  %m_gamma.i5 = getelementptr inbounds i8, ptr %this, i64 220
  store float 1.000000e+00, ptr %m_gamma.i5, align 4
  %m_thumb.i6 = getelementptr inbounds i8, ptr %this, i64 280
  call void @_ZN18OpenImageIO_v2_6_08ImageBuf5clearEv(ptr noundef nonnull align 8 dereferenceable(16) %m_thumb.i6)
  call void @_ZN18OpenImageIO_v2_6_011ImageOutput13ioproxy_clearEv(ptr noundef nonnull align 8 dereferenceable(184) %this)
  br label %return

return:                                           ; preds = %if.end18, %if.then
  %retval.0 = phi i1 [ %tobool24, %if.end18 ], [ true, %if.then ]
  ret i1 %retval.0
}